target datalayout = "e-m:e-p270:32:32-p271:32:32-p272:64:64-i64:64-i128:128-f80:128-n8:16:32:64-S128"
target triple = "x86_64-pc-linux-gnu"

%"class.Ipopt::ReferencedObject.base" = type <{ ptr, i32 }>
%"class.Ipopt::ExpansionMatrixSpace" = type { %"class.Ipopt::MatrixSpace.base", ptr, ptr }
%"class.Ipopt::MatrixSpace.base" = type { %"class.Ipopt::ReferencedObject.base", i32, i32 }
%"class.Ipopt::MatrixSpace" = type { %"class.Ipopt::ReferencedObject.base", i32, i32, [4 x i8] }
%"class.Ipopt::ReferencedObject" = type <{ ptr, i32, [4 x i8] }>

@_ZTVN5Ipopt16ReferencedObjectE = linkonce_odr unnamed_addr constant { [4 x ptr] } { [4 x ptr] [ptr null, ptr @_ZTIN5Ipopt16ReferencedObjectE, ptr @_ZN5Ipopt16ReferencedObjectD2Ev, ptr @_ZN5Ipopt16ReferencedObjectD0Ev] }, comdat, align 8
@_ZTVN5Ipopt11MatrixSpaceE = linkonce_odr unnamed_addr constant { [5 x ptr] } { [5 x ptr] [ptr null, ptr @_ZTIN5Ipopt11MatrixSpaceE, ptr @_ZN5Ipopt16ReferencedObjectD2Ev, ptr @_ZN5Ipopt11MatrixSpaceD0Ev, ptr @__cxa_pure_virtual] }, comdat, align 8

; Function Attrs: mustprogress nounwind uwtable
define linkonce_odr void @_ZN5Ipopt16ReferencedObjectC2Ev(ptr noundef nonnull align 8 dereferenceable(12) %0) unnamed_addr #1 comdat align 2 {
  %2 = alloca ptr, align 8
  store ptr %0, ptr %2, align 8, !tbaa !106
  %3 = load ptr, ptr %2, align 8
  store ptr getelementptr inbounds inrange(-16, 16) ({ [4 x ptr] }, ptr @_ZTVN5Ipopt16ReferencedObjectE, i32 0, i32 0, i32 2), ptr %3, align 8, !tbaa !10
  %4 = getelementptr inbounds nuw %"class.Ipopt::ReferencedObject", ptr %3, i32 0, i32 1
  store i32 0, ptr %4, align 8, !tbaa !108
  ret void
}

; Function Attrs: mustprogress nounwind uwtable
define linkonce_odr void @_ZN5Ipopt16ReferencedObjectD2Ev(ptr noundef nonnull align 8 dereferenceable(12) %0) unnamed_addr #1 comdat align 2 {
  %2 = alloca ptr, align 8
  store ptr %0, ptr %2, align 8, !tbaa !106
  %3 = load ptr, ptr %2, align 8
  store ptr getelementptr inbounds inrange(-16, 16) ({ [4 x ptr] }, ptr @_ZTVN5Ipopt16ReferencedObjectE, i32 0, i32 0, i32 2), ptr %3, align 8, !tbaa !10
  ret void
}

; Function Attrs: mustprogress nounwind uwtable
define linkonce_odr noundef i32 @_ZNK5Ipopt11MatrixSpace5NRowsEv(ptr noundef nonnull align 8 dereferenceable(20) %0) #1 comdat align 2 {
  %2 = alloca ptr, align 8
  store ptr %0, ptr %2, align 8, !tbaa !30
  %3 = load ptr, ptr %2, align 8
  %4 = getelementptr inbounds nuw %"class.Ipopt::MatrixSpace", ptr %3, i32 0, i32 1
  %5 = load i32, ptr %4, align 4, !tbaa !99
  ret i32 %5
}

; Function Attrs: mustprogress nounwind uwtable
define linkonce_odr noundef i32 @_ZNK5Ipopt11MatrixSpace5NColsEv(ptr noundef nonnull align 8 dereferenceable(20) %0) #1 comdat align 2 {
  %2 = alloca ptr, align 8
  store ptr %0, ptr %2, align 8, !tbaa !30
  %3 = load ptr, ptr %2, align 8
  %4 = getelementptr inbounds nuw %"class.Ipopt::MatrixSpace", ptr %3, i32 0, i32 2
  %5 = load i32, ptr %4, align 8, !tbaa !100
  ret i32 %5
}

; Function Attrs: mustprogress nounwind uwtable
define linkonce_odr void @_ZN5Ipopt11MatrixSpaceC2Eii(ptr noundef nonnull align 8 dereferenceable(20) %0, i32 noundef %1, i32 noundef %2) unnamed_addr #1 comdat align 2 {
  %4 = alloca ptr, align 8
  %5 = alloca i32, align 4
  %6 = alloca i32, align 4
  store ptr %0, ptr %4, align 8, !tbaa !30
  store i32 %1, ptr %5, align 4, !tbaa !42
  store i32 %2, ptr %6, align 4, !tbaa !42
  %7 = load ptr, ptr %4, align 8
  call void @_ZN5Ipopt16ReferencedObjectC2Ev(ptr noundef nonnull align 8 dereferenceable(12) %7)
  store ptr getelementptr inbounds inrange(-16, 24) ({ [5 x ptr] }, ptr @_ZTVN5Ipopt11MatrixSpaceE, i32 0, i32 0, i32 2), ptr %7, align 8, !tbaa !10
  %8 = getelementptr inbounds nuw %"class.Ipopt::MatrixSpace", ptr %7, i32 0, i32 1
  %9 = load i32, ptr %5, align 4, !tbaa !42
  store i32 %9, ptr %8, align 4, !tbaa !99
  %10 = getelementptr inbounds nuw %"class.Ipopt::MatrixSpace", ptr %7, i32 0, i32 2
  %11 = load i32, ptr %6, align 4, !tbaa !42
  store i32 %11, ptr %10, align 8, !tbaa !100
  ret void
}

; Function Attrs: mustprogress uwtable
define void @_ZN5Ipopt20ExpansionMatrixSpaceC2EiiPKii(ptr noundef nonnull align 8 dereferenceable(40) %0, i32 noundef %1, i32 noundef %2, ptr noundef %3, i32 noundef %4) unnamed_addr #0 align 2 personality ptr @__gxx_personality_v0 {
  %6 = alloca ptr, align 8
  %7 = alloca i32, align 4
  %8 = alloca i32, align 4
  %9 = alloca ptr, align 8
  %10 = alloca i32, align 4
  %11 = alloca ptr, align 8
  %12 = alloca i32, align 4
  %13 = alloca i32, align 4
  %14 = alloca i32, align 4
  store ptr %0, ptr %6, align 8, !tbaa !8
  store i32 %1, ptr %7, align 4, !tbaa !42
  store i32 %2, ptr %8, align 4, !tbaa !42
  store ptr %3, ptr %9, align 8, !tbaa !38
  store i32 %4, ptr %10, align 4, !tbaa !42
  %15 = load ptr, ptr %6, align 8
  %16 = load i32, ptr %7, align 4, !tbaa !42
  %17 = load i32, ptr %8, align 4, !tbaa !42
  call void @_ZN5Ipopt11MatrixSpaceC2Eii(ptr noundef nonnull align 8 dereferenceable(20) %15, i32 noundef %16, i32 noundef %17)
  store ptr getelementptr inbounds inrange(-16, 24) ({ [5 x ptr] }, ptr @_ZTVN5Ipopt20ExpansionMatrixSpaceE, i32 0, i32 0, i32 2), ptr %15, align 8, !tbaa !10
  %18 = getelementptr inbounds nuw %"class.Ipopt::ExpansionMatrixSpace", ptr %15, i32 0, i32 1
  store ptr null, ptr %18, align 8, !tbaa !93
  %19 = getelementptr inbounds nuw %"class.Ipopt::ExpansionMatrixSpace", ptr %15, i32 0, i32 2
  store ptr null, ptr %19, align 8, !tbaa !96
  %20 = invoke noundef i32 @_ZNK5Ipopt11MatrixSpace5NColsEv(ptr noundef nonnull align 8 dereferenceable(20) %15)
          to label %21 unwind label %34

21:                                               ; preds = %5
  %22 = icmp sgt i32 %20, 0
  br i1 %22, label %23, label %38

23:                                               ; preds = %21
  %24 = invoke noundef i32 @_ZNK5Ipopt11MatrixSpace5NColsEv(ptr noundef nonnull align 8 dereferenceable(20) %15)
          to label %25 unwind label %34

25:                                               ; preds = %23
  %26 = sext i32 %24 to i64
  %27 = call { i64, i1 } @llvm.umul.with.overflow.i64(i64 %26, i64 4)
  %28 = extractvalue { i64, i1 } %27, 1
  %29 = extractvalue { i64, i1 } %27, 0
  %30 = select i1 %28, i64 -1, i64 %29
  %31 = invoke noalias noundef nonnull ptr @_Znam(i64 noundef %30) #16
          to label %32 unwind label %34

32:                                               ; preds = %25
  %33 = getelementptr inbounds nuw %"class.Ipopt::ExpansionMatrixSpace", ptr %15, i32 0, i32 1
  store ptr %31, ptr %33, align 8, !tbaa !93
  br label %38

34:                                               ; preds = %44, %42, %38, %25, %23, %5
  %35 = landingpad { ptr, i32 }
          cleanup
  %36 = extractvalue { ptr, i32 } %35, 0
  store ptr %36, ptr %11, align 8
  %37 = extractvalue { ptr, i32 } %35, 1
  store i32 %37, ptr %12, align 4
  br label %118

38:                                               ; preds = %32, %21
  %39 = invoke noundef i32 @_ZNK5Ipopt11MatrixSpace5NRowsEv(ptr noundef nonnull align 8 dereferenceable(20) %15)
          to label %40 unwind label %34

40:                                               ; preds = %38
  %41 = icmp sgt i32 %39, 0
  br i1 %41, label %42, label %53

42:                                               ; preds = %40
  %43 = invoke noundef i32 @_ZNK5Ipopt11MatrixSpace5NRowsEv(ptr noundef nonnull align 8 dereferenceable(20) %15)
          to label %44 unwind label %34

44:                                               ; preds = %42
  %45 = sext i32 %43 to i64
  %46 = call { i64, i1 } @llvm.umul.with.overflow.i64(i64 %45, i64 4)
  %47 = extractvalue { i64, i1 } %46, 1
  %48 = extractvalue { i64, i1 } %46, 0
  %49 = select i1 %47, i64 -1, i64 %48
  %50 = invoke noalias noundef nonnull ptr @_Znam(i64 noundef %49) #16
          to label %51 unwind label %34

51:                                               ; preds = %44
  %52 = getelementptr inbounds nuw %"class.Ipopt::ExpansionMatrixSpace", ptr %15, i32 0, i32 2
  store ptr %50, ptr %52, align 8, !tbaa !96
  br label %53

53:                                               ; preds = %51, %40
  call void @llvm.lifetime.start.p0(i64 4, ptr %13) #13
  store i32 0, ptr %13, align 4, !tbaa !42
  br label %54

54:                                               ; preds = %70, %53
  %55 = load i32, ptr %13, align 4, !tbaa !42
  %56 = invoke noundef i32 @_ZNK5Ipopt11MatrixSpace5NRowsEv(ptr noundef nonnull align 8 dereferenceable(20) %15)
          to label %57 unwind label %60

57:                                               ; preds = %54
  %58 = icmp slt i32 %55, %56
  br i1 %58, label %64, label %59

59:                                               ; preds = %57
  call void @llvm.lifetime.end.p0(i64 4, ptr %13) #13
  br label %73

60:                                               ; preds = %54
  %61 = landingpad { ptr, i32 }
          cleanup
  %62 = extractvalue { ptr, i32 } %61, 0
  store ptr %62, ptr %11, align 8
  %63 = extractvalue { ptr, i32 } %61, 1
  store i32 %63, ptr %12, align 4
  call void @llvm.lifetime.end.p0(i64 4, ptr %13) #13
  br label %118

64:                                               ; preds = %57
  %65 = getelementptr inbounds nuw %"class.Ipopt::ExpansionMatrixSpace", ptr %15, i32 0, i32 2
  %66 = load ptr, ptr %65, align 8, !tbaa !96
  %67 = load i32, ptr %13, align 4, !tbaa !42
  %68 = sext i32 %67 to i64
  %69 = getelementptr inbounds i32, ptr %66, i64 %68
  store i32 -1, ptr %69, align 4, !tbaa !42
  br label %70

70:                                               ; preds = %64
  %71 = load i32, ptr %13, align 4, !tbaa !42
  %72 = add nsw i32 %71, 1
  store i32 %72, ptr %13, align 4, !tbaa !42
  br label %54, !llvm.loop !97

73:                                               ; preds = %59
  call void @llvm.lifetime.start.p0(i64 4, ptr %14) #13
  store i32 0, ptr %14, align 4, !tbaa !42
  br label %74

74:                                               ; preds = %114, %73
  %75 = load i32, ptr %14, align 4, !tbaa !42
  %76 = invoke noundef i32 @_ZNK5Ipopt11MatrixSpace5NColsEv(ptr noundef nonnull align 8 dereferenceable(20) %15)
          to label %77 unwind label %80

77:                                               ; preds = %74
  %78 = icmp slt i32 %75, %76
  br i1 %78, label %84, label %79

79:                                               ; preds = %77
  call void @llvm.lifetime.end.p0(i64 4, ptr %14) #13
  br label %117

80:                                               ; preds = %84, %74
  %81 = landingpad { ptr, i32 }
          cleanup
  %82 = extractvalue { ptr, i32 } %81, 0
  store ptr %82, ptr %11, align 8
  %83 = extractvalue { ptr, i32 } %81, 1
  store i32 %83, ptr %12, align 4
  call void @llvm.lifetime.end.p0(i64 4, ptr %14) #13
  br label %118

84:                                               ; preds = %77
  %85 = load ptr, ptr %9, align 8, !tbaa !38
  %86 = load i32, ptr %14, align 4, !tbaa !42
  %87 = sext i32 %86 to i64
  %88 = getelementptr inbounds i32, ptr %85, i64 %87
  %89 = load i32, ptr %88, align 4, !tbaa !42
  %90 = load i32, ptr %10, align 4, !tbaa !42
  %91 = sub nsw i32 %89, %90
  %92 = getelementptr inbounds nuw %"class.Ipopt::ExpansionMatrixSpace", ptr %15, i32 0, i32 1
  %93 = load ptr, ptr %92, align 8, !tbaa !93
  %94 = load i32, ptr %14, align 4, !tbaa !42
  %95 = sext i32 %94 to i64
  %96 = getelementptr inbounds i32, ptr %93, i64 %95
  store i32 %91, ptr %96, align 4, !tbaa !42
  %97 = invoke noundef i32 @_ZNK5Ipopt11MatrixSpace5NRowsEv(ptr noundef nonnull align 8 dereferenceable(20) %15)
          to label %98 unwind label %80

98:                                               ; preds = %84
  %99 = icmp sgt i32 %97, 0
  br i1 %99, label %100, label %113

100:                                              ; preds = %98
  %101 = load i32, ptr %14, align 4, !tbaa !42
  %102 = getelementptr inbounds nuw %"class.Ipopt::ExpansionMatrixSpace", ptr %15, i32 0, i32 2
  %103 = load ptr, ptr %102, align 8, !tbaa !96
  %104 = load ptr, ptr %9, align 8, !tbaa !38
  %105 = load i32, ptr %14, align 4, !tbaa !42
  %106 = sext i32 %105 to i64
  %107 = getelementptr inbounds i32, ptr %104, i64 %106
  %108 = load i32, ptr %107, align 4, !tbaa !42
  %109 = load i32, ptr %10, align 4, !tbaa !42
  %110 = sub nsw i32 %108, %109
  %111 = sext i32 %110 to i64
  %112 = getelementptr inbounds i32, ptr %103, i64 %111
  store i32 %101, ptr %112, align 4, !tbaa !42
  br label %113

113:                                              ; preds = %100, %98
  br label %114

114:                                              ; preds = %113
  %115 = load i32, ptr %14, align 4, !tbaa !42
  %116 = add nsw i32 %115, 1
  store i32 %116, ptr %14, align 4, !tbaa !42
  br label %74, !llvm.loop !98

117:                                              ; preds = %79
  ret void

118:                                              ; preds = %80, %60, %34
  call void @_ZN5Ipopt16ReferencedObjectD2Ev(ptr noundef nonnull align 8 dereferenceable(20) %15) #13
  br label %119

119:                                              ; preds = %118
  %120 = load ptr, ptr %11, align 8
  %121 = load i32, ptr %12, align 4
  %122 = insertvalue { ptr, i32 } poison, ptr %120, 0
  %123 = insertvalue { ptr, i32 } %122, i32 %121, 1
  resume { ptr, i32 } %123
}