; Function Attrs: mustprogress uwtable
define void @_ZN5Ipopt20ExpansionMatrixSpaceC2EiiPKii(ptr noundef nonnull writeonly align 8 captures(none) dereferenceable(40) initializes((0, 20), (24, 40)) %0, i32 noundef %1, i32 noundef %2, ptr noundef readonly captures(none) %3, i32 noundef %4) unnamed_addr #0 align 2 personality ptr @__gxx_personality_v0 {
  %6 = getelementptr inbounds nuw i8, ptr %0, i64 8
  store i32 0, ptr %6, align 8, !tbaa !3
  %7 = getelementptr inbounds nuw i8, ptr %0, i64 12
  store i32 %1, ptr %7, align 4, !tbaa !82
  %8 = getelementptr inbounds nuw i8, ptr %0, i64 16
  store i32 %2, ptr %8, align 8, !tbaa !50
  store ptr getelementptr inbounds nuw inrange(-16, 24) (i8, ptr @_ZTVN5Ipopt20ExpansionMatrixSpaceE, i64 16), ptr %0, align 8, !tbaa !8
  %9 = getelementptr inbounds nuw i8, ptr %0, i64 24
  %10 = getelementptr inbounds nuw i8, ptr %0, i64 32
  %11 = icmp sgt i32 %2, 0
  tail call void @llvm.memset.p0.i64(ptr noundef nonnull align 8 dereferenceable(16) %9, i8 0, i64 16, i1 false)
  br i1 %11, label %12, label %19

12:                                               ; preds = %5
  %13 = zext nneg i32 %2 to i64
  %14 = shl nuw nsw i64 %13, 2
  %15 = invoke noalias noundef nonnull ptr @_Znam(i64 noundef %14) #14
          to label %16 unwind label %17

16:                                               ; preds = %12
  store ptr %15, ptr %9, align 8, !tbaa !28
  br label %19

17:                                               ; preds = %22, %12
  %18 = landingpad { ptr, i32 }
          cleanup
  store ptr getelementptr inbounds nuw inrange(-16, 16) (i8, ptr @_ZTVN5Ipopt16ReferencedObjectE, i64 16), ptr %0, align 8, !tbaa !8
  resume { ptr, i32 } %18

19:                                               ; preds = %16, %5
  %20 = phi ptr [ %15, %16 ], [ null, %5 ]
  %21 = icmp sgt i32 %1, 0
  br i1 %21, label %22, label %.preheader

22:                                               ; preds = %19
  %23 = zext nneg i32 %1 to i64
  %24 = shl nuw nsw i64 %23, 2
  %25 = invoke noalias noundef nonnull ptr @_Znam(i64 noundef %24) #14
          to label %.lr.ph unwind label %17

.lr.ph:                                           ; preds = %22
  store ptr %25, ptr %10, align 8, !tbaa !84
  %26 = zext nneg i32 %1 to i64
  br label %29

.preheader:                                       ; preds = %29, %19
  %27 = phi ptr [ null, %19 ], [ %25, %29 ]
  br i1 %11, label %.lr.ph20, label %._crit_edge

.lr.ph20:                                         ; preds = %.preheader
  %28 = zext nneg i32 %2 to i64
  br label %32

29:                                               ; preds = %.lr.ph, %29
  %indvars.iv = phi i64 [ 0, %.lr.ph ], [ %indvars.iv.next, %29 ]
  %30 = getelementptr inbounds nuw i32, ptr %25, i64 %indvars.iv
  store i32 -1, ptr %30, align 4, !tbaa !51
  %indvars.iv.next = add nuw nsw i64 %indvars.iv, 1
  %31 = icmp samesign ult i64 %indvars.iv.next, %26
  br i1 %31, label %29, label %.preheader, !llvm.loop !85

._crit_edge:                                      ; preds = %41, %.preheader
  ret void

32:                                               ; preds = %.lr.ph20, %41
  %indvars.iv22 = phi i64 [ 0, %.lr.ph20 ], [ %indvars.iv.next23, %41 ]
  %33 = getelementptr inbounds nuw i32, ptr %3, i64 %indvars.iv22
  %34 = load i32, ptr %33, align 4, !tbaa !51
  %35 = sub nsw i32 %34, %4
  %36 = getelementptr inbounds nuw i32, ptr %20, i64 %indvars.iv22
  store i32 %35, ptr %36, align 4, !tbaa !51
  br i1 %21, label %37, label %41

37:                                               ; preds = %32
  %38 = sext i32 %35 to i64
  %39 = getelementptr inbounds i32, ptr %27, i64 %38
  %40 = trunc nuw nsw i64 %indvars.iv22 to i32
  store i32 %40, ptr %39, align 4, !tbaa !51
  br label %41

41:                                               ; preds = %32, %37
  %indvars.iv.next23 = add nuw nsw i64 %indvars.iv22, 1
  %42 = icmp samesign ult i64 %indvars.iv.next23, %28
  br i1 %42, label %32, label %._crit_edge, !llvm.loop !86
}